target datalayout = "e-m:e-p270:32:32-p271:32:32-p272:64:64-i64:64-i128:128-f80:128-n8:16:32:64-S128"
target triple = "x86_64-pc-linux-gnu"

%"class.Assimp::SMDImporter" = type <{ %"class.Assimp::BaseImporter", i32, [4 x i8], %"class.std::vector", ptr, ptr, i32, [4 x i8], %"class.std::vector.0", %"class.std::vector.5", %"class.std::vector.10", i32, [4 x i8], double, i8, [3 x i8], i32, i8, i8, [6 x i8] }>
%"class.Assimp::BaseImporter" = type { ptr, double, double, %"class.std::__cxx11::basic_string", %"class.std::__exception_ptr::exception_ptr", ptr }
%"class.std::__cxx11::basic_string" = type { %"struct.std::__cxx11::basic_string<char>::_Alloc_hider", i64, %union.anon }
%"struct.std::__cxx11::basic_string<char>::_Alloc_hider" = type { ptr }
%union.anon = type { i64, [8 x i8] }
%"class.std::__exception_ptr::exception_ptr" = type { ptr }
%"class.std::vector" = type { %"struct.std::_Vector_base" }
%"struct.std::_Vector_base" = type { %"struct.std::_Vector_base<char, std::allocator<char>>::_Vector_impl" }
%"struct.std::_Vector_base<char, std::allocator<char>>::_Vector_impl" = type { %"struct.std::_Vector_base<char, std::allocator<char>>::_Vector_impl_data" }
%"struct.std::_Vector_base<char, std::allocator<char>>::_Vector_impl_data" = type { ptr, ptr, ptr }
%"class.std::vector.0" = type { %"struct.std::_Vector_base.1" }
%"struct.std::_Vector_base.1" = type { %"struct.std::_Vector_base<std::__cxx11::basic_string<char>, std::allocator<std::__cxx11::basic_string<char>>>::_Vector_impl" }
%"struct.std::_Vector_base<std::__cxx11::basic_string<char>, std::allocator<std::__cxx11::basic_string<char>>>::_Vector_impl" = type { %"struct.std::_Vector_base<std::__cxx11::basic_string<char>, std::allocator<std::__cxx11::basic_string<char>>>::_Vector_impl_data" }
%"struct.std::_Vector_base<std::__cxx11::basic_string<char>, std::allocator<std::__cxx11::basic_string<char>>>::_Vector_impl_data" = type { ptr, ptr, ptr }
%"class.std::vector.5" = type { %"struct.std::_Vector_base.6" }
%"struct.std::_Vector_base.6" = type { %"struct.std::_Vector_base<Assimp::SMD::Face, std::allocator<Assimp::SMD::Face>>::_Vector_impl" }
%"struct.std::_Vector_base<Assimp::SMD::Face, std::allocator<Assimp::SMD::Face>>::_Vector_impl" = type { %"struct.std::_Vector_base<Assimp::SMD::Face, std::allocator<Assimp::SMD::Face>>::_Vector_impl_data" }
%"struct.std::_Vector_base<Assimp::SMD::Face, std::allocator<Assimp::SMD::Face>>::_Vector_impl_data" = type { ptr, ptr, ptr }
%"class.std::vector.10" = type { %"struct.std::_Vector_base.11" }
%"struct.std::_Vector_base.11" = type { %"struct.std::_Vector_base<Assimp::SMD::Bone, std::allocator<Assimp::SMD::Bone>>::_Vector_impl" }
%"struct.std::_Vector_base<Assimp::SMD::Bone, std::allocator<Assimp::SMD::Bone>>::_Vector_impl" = type { %"struct.std::_Vector_base<Assimp::SMD::Bone, std::allocator<Assimp::SMD::Bone>>::_Vector_impl_data" }
%"struct.std::_Vector_base<Assimp::SMD::Bone, std::allocator<Assimp::SMD::Bone>>::_Vector_impl_data" = type { ptr, ptr, ptr }

@.str.8 = private unnamed_addr constant [12 x i8] c"Line %u: %s\00", align 1

; Function Attrs: mustprogress uwtable
define void @_ZN6Assimp11SMDImporter15LogErrorNoThrowEPKc(ptr noundef nonnull align 8 dereferenceable(226) %0, ptr noundef %1) #3 align 2 {
  %3 = alloca ptr, align 8
  %4 = alloca ptr, align 8
  %5 = alloca i64, align 8
  %6 = alloca [1024 x i8], align 16
  store ptr %0, ptr %3, align 8
  store ptr %1, ptr %4, align 8
  %7 = load ptr, ptr %3, align 8
  call void @llvm.lifetime.start.p0(i64 8, ptr %5) #17
  store i64 1024, ptr %5, align 8
  call void @llvm.lifetime.start.p0(i64 1024, ptr %6) #17
  %8 = getelementptr inbounds [1024 x i8], ptr %6, i64 0, i64 0
  %9 = getelementptr inbounds nuw %"class.Assimp::SMDImporter", ptr %7, i32 0, i32 16
  %10 = load i32, ptr %9, align 4
  %11 = load ptr, ptr %4, align 8
  %12 = call i32 (ptr, i64, ptr, ...) @snprintf(ptr noundef %8, i64 noundef 1024, ptr noundef @.str.8, i32 noundef %10, ptr noundef %11) #17
  %13 = call noundef ptr @_ZN6Assimp13DefaultLogger3getEv()
  call void @_ZN6Assimp6Logger5errorIJRA1024_cEEEvDpOT_(ptr noundef nonnull align 8 dereferenceable(12) %13, ptr noundef nonnull align 1 dereferenceable(1024) %6)
  call void @llvm.lifetime.end.p0(i64 1024, ptr %6) #17
  call void @llvm.lifetime.end.p0(i64 8, ptr %5) #17
  ret void
}